; Function Attrs: mustprogress uwtable
define hidden void @_ZN2cv8ximgproc11DTFilterCPU6createERKNS_11_InputArrayEddii(ptr dead_on_unwind noalias writable sret(%"struct.cv::Ptr") align 8 %0, ptr noundef nonnull align 8 dereferenceable(24) %1, double noundef %2, double noundef %3, i32 noundef %4, i32 noundef %5) local_unnamed_addr #3 align 2 personality ptr @__gxx_personality_v0 {
  %7 = tail call noalias noundef nonnull dereferenceable(816) ptr @_Znwm(i64 noundef 816) #23
  invoke void @_ZN2cv9AlgorithmC2Ev(ptr noundef nonnull align 8 dereferenceable(812) %7)
          to label %8 unwind label %38

8:                                                ; preds = %6
  store ptr getelementptr inbounds nuw inrange(-16, 72) (i8, ptr @_ZTVN2cv8ximgproc11DTFilterCPUE, i64 16), ptr %7, align 8, !tbaa !3
  %9 = getelementptr inbounds nuw i8, ptr %7, i64 16
  store i32 -1, ptr %9, align 8, !tbaa !6
  %10 = getelementptr inbounds nuw i8, ptr %7, i64 28
  store i8 0, ptr %10, align 4, !tbaa !23
  %11 = getelementptr inbounds nuw i8, ptr %7, i64 32
  store i32 0, ptr %11, align 8, !tbaa !24
  %12 = getelementptr inbounds nuw i8, ptr %7, i64 40
  tail call void @_ZN2cv3MatC1Ev(ptr noundef nonnull align 8 dereferenceable(96) %12) #24
  %13 = getelementptr inbounds nuw i8, ptr %7, i64 136
  tail call void @_ZN2cv3MatC1Ev(ptr noundef nonnull align 8 dereferenceable(96) %13) #24
  %14 = getelementptr inbounds nuw i8, ptr %7, i64 232
  tail call void @_ZN2cv3MatC1Ev(ptr noundef nonnull align 8 dereferenceable(96) %14) #24
  %15 = getelementptr inbounds nuw i8, ptr %7, i64 328
  tail call void @_ZN2cv3MatC1Ev(ptr noundef nonnull align 8 dereferenceable(96) %15) #24
  %16 = getelementptr inbounds nuw i8, ptr %7, i64 424
  tail call void @_ZN2cv3MatC1Ev(ptr noundef nonnull align 8 dereferenceable(96) %16) #24
  %17 = getelementptr inbounds nuw i8, ptr %7, i64 520
  tail call void @_ZN2cv3MatC1Ev(ptr noundef nonnull align 8 dereferenceable(96) %17) #24
  %18 = getelementptr inbounds nuw i8, ptr %7, i64 616
  tail call void @_ZN2cv3MatC1Ev(ptr noundef nonnull align 8 dereferenceable(96) %18) #24
  %19 = getelementptr inbounds nuw i8, ptr %7, i64 712
  tail call void @_ZN2cv3MatC1Ev(ptr noundef nonnull align 8 dereferenceable(96) %19) #24
  store ptr %7, ptr %0, align 8, !tbaa !25
  %20 = getelementptr inbounds nuw i8, ptr %0, i64 8
  store ptr null, ptr %20, align 8, !tbaa !30
  %21 = invoke noalias noundef nonnull dereferenceable(24) ptr @_Znwm(i64 noundef 24) #23
          to label %_ZN2cv3PtrINS_8ximgproc11DTFilterCPUEEC2IS2_EEPT_.exit unwind label %22

22:                                               ; preds = %8
  %23 = landingpad { ptr, i32 }
          catch ptr null
  %24 = extractvalue { ptr, i32 } %23, 0
  %25 = tail call ptr @__cxa_begin_catch(ptr %24) #24
  %26 = load ptr, ptr %7, align 8, !tbaa !3
  %27 = getelementptr inbounds nuw i8, ptr %26, i64 8
  %28 = load ptr, ptr %27, align 8
  tail call void %28(ptr noundef nonnull align 8 dereferenceable(812) %7) #24
  invoke void @__cxa_rethrow() #25
          to label %34 unwind label %29

29:                                               ; preds = %22
  %30 = landingpad { ptr, i32 }
          cleanup
  invoke void @__cxa_end_catch()
          to label %common.resume unwind label %31

common.resume:                                    ; preds = %38, %40, %29
  %common.resume.op = phi { ptr, i32 } [ %30, %29 ], [ %41, %40 ], [ %39, %38 ]
  resume { ptr, i32 } %common.resume.op

31:                                               ; preds = %29
  %32 = landingpad { ptr, i32 }
          catch ptr null
  %33 = extractvalue { ptr, i32 } %32, 0
  tail call void @__clang_call_terminate(ptr %33) #26
  unreachable

34:                                               ; preds = %22
  unreachable

_ZN2cv3PtrINS_8ximgproc11DTFilterCPUEEC2IS2_EEPT_.exit: ; preds = %8
  %35 = getelementptr inbounds nuw i8, ptr %21, i64 8
  store i32 1, ptr %35, align 8, !tbaa !31
  %36 = getelementptr inbounds nuw i8, ptr %21, i64 12
  store i32 1, ptr %36, align 4, !tbaa !33
  store ptr getelementptr inbounds nuw inrange(-16, 40) (i8, ptr @_ZTVSt15_Sp_counted_ptrIPN2cv8ximgproc11DTFilterCPUELN9__gnu_cxx12_Lock_policyE2EE, i64 16), ptr %21, align 8, !tbaa !3
  %37 = getelementptr inbounds nuw i8, ptr %21, i64 16
  store ptr %7, ptr %37, align 8, !tbaa !34
  store ptr %21, ptr %20, align 8, !tbaa !30
  invoke void @_ZN2cv8ximgproc11DTFilterCPU4initERKNS_11_InputArrayEddii(ptr noundef nonnull align 8 dereferenceable(812) %7, ptr noundef nonnull align 8 dereferenceable(24) %1, double noundef %2, double noundef %3, i32 noundef %4, i32 noundef %5)
          to label %42 unwind label %40

38:                                               ; preds = %6
  %39 = landingpad { ptr, i32 }
          cleanup
  tail call void @_ZdlPv(ptr noundef nonnull %7) #27
  br label %common.resume

40:                                               ; preds = %_ZN2cv3PtrINS_8ximgproc11DTFilterCPUEEC2IS2_EEPT_.exit
  %41 = landingpad { ptr, i32 }
          cleanup
  tail call void @_ZNSt12__shared_ptrIN2cv8ximgproc11DTFilterCPUELN9__gnu_cxx12_Lock_policyE2EED2Ev(ptr noundef nonnull align 8 dereferenceable(16) %0) #24
  br label %common.resume

42:                                               ; preds = %_ZN2cv3PtrINS_8ximgproc11DTFilterCPUEEC2IS2_EEPT_.exit
  ret void
}